target datalayout = "e-m:e-p270:32:32-p271:32:32-p272:64:64-i64:64-i128:128-f80:128-n8:16:32:64-S128"
target triple = "x86_64-pc-linux-gnu"

%struct.archiver = type { ptr, ptr, i32, ptr }

@.str = private unnamed_addr constant [16 x i8] c"tar.tgz.command\00", align 1
@internal_gzip_command = internal constant [17 x i8] c"git archive gzip\00", align 16
@.str.1 = private unnamed_addr constant [15 x i8] c"tar.tgz.remote\00", align 1
@.str.2 = private unnamed_addr constant [5 x i8] c"true\00", align 1
@.str.3 = private unnamed_addr constant [19 x i8] c"tar.tar.gz.command\00", align 1
@.str.4 = private unnamed_addr constant [18 x i8] c"tar.tar.gz.remote\00", align 1
@nr_tar_filters = internal global i32 0, align 4
@tar_filters = internal global ptr null, align 8
@tar_archiver = internal global { ptr, ptr, i32, [4 x i8], ptr } { ptr @.str.5, ptr @write_tar_archive, i32 2, [4 x i8] zeroinitializer, ptr null }, align 8
@the_repository = external global ptr, align 8

; Function Attrs: inlinehint nounwind uwtable
define internal void @git_config(ptr noundef %0, ptr noundef %1) #3 {
  %3 = alloca ptr, align 8
  %4 = alloca ptr, align 8
  store ptr %0, ptr %3, align 8, !tbaa !19
  store ptr %1, ptr %4, align 8, !tbaa !19
  %5 = load ptr, ptr @the_repository, align 8, !tbaa !25
  %6 = load ptr, ptr %3, align 8, !tbaa !19
  %7 = load ptr, ptr %4, align 8, !tbaa !19
  call void @repo_config(ptr noundef %5, ptr noundef %6, ptr noundef %7)
  ret void
}

; Function Attrs: nounwind uwtable
define dso_local void @init_tar_archiver() #0 {
  %1 = alloca i32, align 4
  call void @llvm.lifetime.start.p0(i64 4, ptr %1) #9
  call void @register_archiver(ptr noundef @tar_archiver)
  %2 = call i32 @tar_filter_config(ptr noundef @.str, ptr noundef @internal_gzip_command, ptr noundef null)
  %3 = call i32 @tar_filter_config(ptr noundef @.str.1, ptr noundef @.str.2, ptr noundef null)
  %4 = call i32 @tar_filter_config(ptr noundef @.str.3, ptr noundef @internal_gzip_command, ptr noundef null)
  %5 = call i32 @tar_filter_config(ptr noundef @.str.4, ptr noundef @.str.2, ptr noundef null)
  call void @git_config(ptr noundef @git_tar_config, ptr noundef null)
  store i32 0, ptr %1, align 4, !tbaa !4
  br label %6

6:                                                ; preds = %26, %0
  %7 = load i32, ptr %1, align 4, !tbaa !4
  %8 = load i32, ptr @nr_tar_filters, align 4, !tbaa !4
  %9 = icmp slt i32 %7, %8
  br i1 %9, label %10, label %29

10:                                               ; preds = %6
  %11 = load ptr, ptr @tar_filters, align 8, !tbaa !8
  %12 = load i32, ptr %1, align 4, !tbaa !4
  %13 = sext i32 %12 to i64
  %14 = getelementptr inbounds ptr, ptr %11, i64 %13
  %15 = load ptr, ptr %14, align 8, !tbaa !11
  %16 = getelementptr inbounds nuw %struct.archiver, ptr %15, i32 0, i32 3
  %17 = load ptr, ptr %16, align 8, !tbaa !13
  %18 = icmp ne ptr %17, null
  br i1 %18, label %19, label %25

19:                                               ; preds = %10
  %20 = load ptr, ptr @tar_filters, align 8, !tbaa !8
  %21 = load i32, ptr %1, align 4, !tbaa !4
  %22 = sext i32 %21 to i64
  %23 = getelementptr inbounds ptr, ptr %20, i64 %22
  %24 = load ptr, ptr %23, align 8, !tbaa !11
  call void @register_archiver(ptr noundef %24)
  br label %25

25:                                               ; preds = %19, %10
  br label %26

26:                                               ; preds = %25
  %27 = load i32, ptr %1, align 4, !tbaa !4
  %28 = add nsw i32 %27, 1
  store i32 %28, ptr %1, align 4, !tbaa !4
  br label %6, !llvm.loop !16

29:                                               ; preds = %6
  call void @llvm.lifetime.end.p0(i64 4, ptr %1) #9
  ret void
}