; Function Attrs: nounwind uwtable
define dso_local void @init_tar_archiver() local_unnamed_addr #0 {
  tail call void @register_archiver(ptr noundef nonnull @tar_archiver) #11
  %1 = tail call fastcc i32 @tar_filter_config(ptr noundef nonnull @.str, ptr noundef nonnull @internal_gzip_command)
  %2 = tail call fastcc i32 @tar_filter_config(ptr noundef nonnull @.str.1, ptr noundef nonnull @.str.2)
  %3 = tail call fastcc i32 @tar_filter_config(ptr noundef nonnull @.str.3, ptr noundef nonnull @internal_gzip_command)
  %4 = tail call fastcc i32 @tar_filter_config(ptr noundef nonnull @.str.4, ptr noundef nonnull @.str.2)
  %5 = load ptr, ptr @the_repository, align 8, !tbaa !4
  tail call void @repo_config(ptr noundef %5, ptr noundef nonnull @git_tar_config, ptr noundef null) #11
  %6 = load i32, ptr @nr_tar_filters, align 4, !tbaa !9
  %7 = icmp sgt i32 %6, 0
  br i1 %7, label %.lr.ph.preheader, label %._crit_edge

.lr.ph.preheader:                                 ; preds = %0
  %.pre6 = load ptr, ptr @tar_filters, align 8, !tbaa !11
  br label %.lr.ph

.lr.ph:                                           ; preds = %.lr.ph.preheader, %15
  %8 = phi i32 [ %6, %.lr.ph.preheader ], [ %16, %15 ]
  %9 = phi ptr [ %.pre6, %.lr.ph.preheader ], [ %17, %15 ]
  %indvars.iv = phi i64 [ 0, %.lr.ph.preheader ], [ %indvars.iv.next, %15 ]
  %10 = getelementptr inbounds nuw ptr, ptr %9, i64 %indvars.iv
  %11 = load ptr, ptr %10, align 8, !tbaa !13
  %12 = getelementptr inbounds nuw i8, ptr %11, i64 24
  %13 = load ptr, ptr %12, align 8, !tbaa !15
  %.not = icmp eq ptr %13, null
  br i1 %.not, label %15, label %14

14:                                               ; preds = %.lr.ph
  tail call void @register_archiver(ptr noundef nonnull %11) #11
  %.pre = load ptr, ptr @tar_filters, align 8, !tbaa !11
  %.pre7 = load i32, ptr @nr_tar_filters, align 4, !tbaa !9
  br label %15

15:                                               ; preds = %.lr.ph, %14
  %16 = phi i32 [ %8, %.lr.ph ], [ %.pre7, %14 ]
  %17 = phi ptr [ %9, %.lr.ph ], [ %.pre, %14 ]
  %indvars.iv.next = add nuw nsw i64 %indvars.iv, 1
  %18 = sext i32 %16 to i64
  %19 = icmp slt i64 %indvars.iv.next, %18
  br i1 %19, label %.lr.ph, label %._crit_edge, !llvm.loop !18

._crit_edge:                                      ; preds = %15, %0
  ret void
}